target datalayout = "e-m:e-p270:32:32-p271:32:32-p272:64:64-i64:64-i128:128-f80:128-n8:16:32:64-S128"
target triple = "x86_64-pc-linux-gnu"

%struct.SwsPass = type { ptr, ptr, i32, i32, i32, i32, i32, ptr, %struct.SwsImg, ptr, ptr, ptr }
%struct.SwsImg = type { i32, [4 x ptr], [4 x i32] }

; Function Attrs: nounwind uwtable
define internal void @run_rgb2xyz(ptr noundef %0, ptr noundef %1, i32 noundef %2, i32 noundef %3, ptr noundef %4) #0 {
  %6 = alloca ptr, align 8
  %7 = alloca ptr, align 8
  %8 = alloca i32, align 4
  %9 = alloca i32, align 4
  %10 = alloca ptr, align 8
  store ptr %0, ptr %6, align 8, !tbaa !59
  store ptr %1, ptr %7, align 8, !tbaa !59
  store i32 %2, ptr %8, align 4, !tbaa !9
  store i32 %3, ptr %9, align 4, !tbaa !9
  store ptr %4, ptr %10, align 8, !tbaa !11
  %11 = load ptr, ptr %10, align 8, !tbaa !11
  %12 = getelementptr inbounds nuw %struct.SwsPass, ptr %11, i32 0, i32 11
  %13 = load ptr, ptr %12, align 8, !tbaa !18
  %14 = load ptr, ptr %6, align 8, !tbaa !59
  %15 = getelementptr inbounds nuw %struct.SwsImg, ptr %14, i32 0, i32 1
  %16 = getelementptr inbounds [4 x ptr], ptr %15, i64 0, i64 0
  %17 = load ptr, ptr %16, align 8, !tbaa !68
  %18 = load i32, ptr %8, align 4, !tbaa !9
  %19 = load ptr, ptr %6, align 8, !tbaa !59
  %20 = getelementptr inbounds nuw %struct.SwsImg, ptr %19, i32 0, i32 2
  %21 = getelementptr inbounds [4 x i32], ptr %20, i64 0, i64 0
  %22 = load i32, ptr %21, align 8, !tbaa !9
  %23 = mul nsw i32 %18, %22
  %24 = sext i32 %23 to i64
  %25 = getelementptr inbounds i8, ptr %17, i64 %24
  %26 = load ptr, ptr %6, align 8, !tbaa !59
  %27 = getelementptr inbounds nuw %struct.SwsImg, ptr %26, i32 0, i32 2
  %28 = getelementptr inbounds [4 x i32], ptr %27, i64 0, i64 0
  %29 = load i32, ptr %28, align 8, !tbaa !9
  %30 = load ptr, ptr %7, align 8, !tbaa !59
  %31 = getelementptr inbounds nuw %struct.SwsImg, ptr %30, i32 0, i32 1
  %32 = getelementptr inbounds [4 x ptr], ptr %31, i64 0, i64 0
  %33 = load ptr, ptr %32, align 8, !tbaa !68
  %34 = load i32, ptr %8, align 4, !tbaa !9
  %35 = load ptr, ptr %7, align 8, !tbaa !59
  %36 = getelementptr inbounds nuw %struct.SwsImg, ptr %35, i32 0, i32 2
  %37 = getelementptr inbounds [4 x i32], ptr %36, i64 0, i64 0
  %38 = load i32, ptr %37, align 8, !tbaa !9
  %39 = mul nsw i32 %34, %38
  %40 = sext i32 %39 to i64
  %41 = getelementptr inbounds i8, ptr %33, i64 %40
  %42 = load ptr, ptr %7, align 8, !tbaa !59
  %43 = getelementptr inbounds nuw %struct.SwsImg, ptr %42, i32 0, i32 2
  %44 = getelementptr inbounds [4 x i32], ptr %43, i64 0, i64 0
  %45 = load i32, ptr %44, align 8, !tbaa !9
  %46 = load ptr, ptr %10, align 8, !tbaa !11
  %47 = getelementptr inbounds nuw %struct.SwsPass, ptr %46, i32 0, i32 3
  %48 = load i32, ptr %47, align 4, !tbaa !20
  %49 = load i32, ptr %9, align 4, !tbaa !9
  call void @ff_rgb48Toxyz12(ptr noundef %13, ptr noundef %25, i32 noundef %29, ptr noundef %41, i32 noundef %45, i32 noundef %48, i32 noundef %49)
  ret void
}