; Function Attrs: nounwind uwtable
define internal void @run_rgb2xyz(ptr noundef readonly captures(none) %0, ptr noundef readonly captures(none) %1, i32 noundef %2, i32 noundef %3, ptr noundef readonly captures(none) %4) #0 {
  %6 = getelementptr inbounds nuw i8, ptr %4, i64 120
  %7 = load ptr, ptr %6, align 8, !tbaa !15
  %8 = getelementptr inbounds nuw i8, ptr %0, i64 8
  %9 = load ptr, ptr %8, align 8, !tbaa !75
  %10 = getelementptr inbounds nuw i8, ptr %0, i64 40
  %11 = load i32, ptr %10, align 8, !tbaa !42
  %12 = mul nsw i32 %11, %2
  %13 = sext i32 %12 to i64
  %14 = getelementptr inbounds i8, ptr %9, i64 %13
  %15 = getelementptr inbounds nuw i8, ptr %1, i64 8
  %16 = load ptr, ptr %15, align 8, !tbaa !75
  %17 = getelementptr inbounds nuw i8, ptr %1, i64 40
  %18 = load i32, ptr %17, align 8, !tbaa !42
  %19 = mul nsw i32 %18, %2
  %20 = sext i32 %19 to i64
  %21 = getelementptr inbounds i8, ptr %16, i64 %20
  %22 = getelementptr inbounds nuw i8, ptr %4, i64 20
  %23 = load i32, ptr %22, align 4, !tbaa !17
  tail call void @ff_rgb48Toxyz12(ptr noundef %7, ptr noundef %14, i32 noundef %11, ptr noundef %21, i32 noundef %18, i32 noundef %23, i32 noundef %3) #12
  ret void
}